target datalayout = "e-m:e-p270:32:32-p271:32:32-p272:64:64-i64:64-i128:128-f80:128-n8:16:32:64-S128"
target triple = "x86_64-pc-linux-gnu"

@.str.22 = private unnamed_addr constant [4 x i8] c"sat\00", align 1
@.str.23 = private unnamed_addr constant [13 x i8] c"asymm_branch\00", align 1
@.str.24 = private unnamed_addr constant [20 x i8] c"asymm_branch.rounds\00", align 1
@.str.25 = private unnamed_addr constant [19 x i8] c"asymm_branch.delay\00", align 1
@.str.26 = private unnamed_addr constant [21 x i8] c"asymm_branch.sampled\00", align 1
@.str.27 = private unnamed_addr constant [19 x i8] c"asymm_branch.limit\00", align 1
@.str.28 = private unnamed_addr constant [17 x i8] c"asymm_branch.all\00", align 1
@.str.29 = private unnamed_addr constant [21 x i8] c"asymmetric branching\00", align 1
@.str.30 = private unnamed_addr constant [5 x i8] c"true\00", align 1
@.str.31 = private unnamed_addr constant [86 x i8] c"maximal number of rounds to run asymmetric branch simplifications if progress is made\00", align 1
@.str.32 = private unnamed_addr constant [2 x i8] c"2\00", align 1
@.str.33 = private unnamed_addr constant [88 x i8] c"number of simplification rounds to wait until invoking asymmetric branch simplification\00", align 1
@.str.34 = private unnamed_addr constant [2 x i8] c"1\00", align 1
@.str.35 = private unnamed_addr constant [74 x i8] c"use sampling based asymmetric branching based on binary implication graph\00", align 1
@.str.36 = private unnamed_addr constant [71 x i8] c"approx. maximum number of literals visited during asymmetric branching\00", align 1
@.str.37 = private unnamed_addr constant [10 x i8] c"100000000\00", align 1
@.str.38 = private unnamed_addr constant [48 x i8] c"asymmetric branching on all literals per clause\00", align 1
@.str.39 = private unnamed_addr constant [6 x i8] c"false\00", align 1

; Function Attrs: mustprogress uwtable
define linkonce_odr hidden void @_ZN23sat_asymm_branch_params20collect_param_descrsER12param_descrs(ptr noundef nonnull align 8 dereferenceable(8) %0) #4 comdat align 2 {
  %2 = alloca ptr, align 8
  store ptr %0, ptr %2, align 8, !tbaa !270
  %3 = load ptr, ptr %2, align 8, !tbaa !270
  call void @_ZN12param_descrs6insertEPKc12cmd_arg_kindS1_S1_S1_(ptr noundef nonnull align 8 dereferenceable(8) %3, ptr noundef @.str.23, i32 noundef 1, ptr noundef @.str.29, ptr noundef @.str.30, ptr noundef @.str.22)
  %4 = load ptr, ptr %2, align 8, !tbaa !270
  call void @_ZN12param_descrs6insertEPKc12cmd_arg_kindS1_S1_S1_(ptr noundef nonnull align 8 dereferenceable(8) %4, ptr noundef @.str.24, i32 noundef 0, ptr noundef @.str.31, ptr noundef @.str.32, ptr noundef @.str.22)
  %5 = load ptr, ptr %2, align 8, !tbaa !270
  call void @_ZN12param_descrs6insertEPKc12cmd_arg_kindS1_S1_S1_(ptr noundef nonnull align 8 dereferenceable(8) %5, ptr noundef @.str.25, i32 noundef 0, ptr noundef @.str.33, ptr noundef @.str.34, ptr noundef @.str.22)
  %6 = load ptr, ptr %2, align 8, !tbaa !270
  call void @_ZN12param_descrs6insertEPKc12cmd_arg_kindS1_S1_S1_(ptr noundef nonnull align 8 dereferenceable(8) %6, ptr noundef @.str.26, i32 noundef 1, ptr noundef @.str.35, ptr noundef @.str.30, ptr noundef @.str.22)
  %7 = load ptr, ptr %2, align 8, !tbaa !270
  call void @_ZN12param_descrs6insertEPKc12cmd_arg_kindS1_S1_S1_(ptr noundef nonnull align 8 dereferenceable(8) %7, ptr noundef @.str.27, i32 noundef 0, ptr noundef @.str.36, ptr noundef @.str.37, ptr noundef @.str.22)
  %8 = load ptr, ptr %2, align 8, !tbaa !270
  call void @_ZN12param_descrs6insertEPKc12cmd_arg_kindS1_S1_S1_(ptr noundef nonnull align 8 dereferenceable(8) %8, ptr noundef @.str.28, i32 noundef 1, ptr noundef @.str.38, ptr noundef @.str.39, ptr noundef @.str.22)
  ret void
}

; Function Attrs: mustprogress uwtable
define hidden void @_ZN3sat12asymm_branch20collect_param_descrsER12param_descrs(ptr noundef nonnull align 8 dereferenceable(8) %0) #4 align 2 {
  %2 = alloca ptr, align 8
  store ptr %0, ptr %2, align 8, !tbaa !270
  %3 = load ptr, ptr %2, align 8, !tbaa !270
  call void @_ZN23sat_asymm_branch_params20collect_param_descrsER12param_descrs(ptr noundef nonnull align 8 dereferenceable(8) %3)
  ret void
}