; Function Attrs: mustprogress uwtable
define hidden void @_ZN3sat12asymm_branch20collect_param_descrsER12param_descrs(ptr noundef nonnull align 8 dereferenceable(8) %0) local_unnamed_addr #3 align 2 {
  tail call void @_ZN12param_descrs6insertEPKc12cmd_arg_kindS1_S1_S1_(ptr noundef nonnull align 8 dereferenceable(8) %0, ptr noundef nonnull @.str.23, i32 noundef 1, ptr noundef nonnull @.str.29, ptr noundef nonnull @.str.30, ptr noundef nonnull @.str.22)
  tail call void @_ZN12param_descrs6insertEPKc12cmd_arg_kindS1_S1_S1_(ptr noundef nonnull align 8 dereferenceable(8) %0, ptr noundef nonnull @.str.24, i32 noundef 0, ptr noundef nonnull @.str.31, ptr noundef nonnull @.str.32, ptr noundef nonnull @.str.22)
  tail call void @_ZN12param_descrs6insertEPKc12cmd_arg_kindS1_S1_S1_(ptr noundef nonnull align 8 dereferenceable(8) %0, ptr noundef nonnull @.str.25, i32 noundef 0, ptr noundef nonnull @.str.33, ptr noundef nonnull @.str.34, ptr noundef nonnull @.str.22)
  tail call void @_ZN12param_descrs6insertEPKc12cmd_arg_kindS1_S1_S1_(ptr noundef nonnull align 8 dereferenceable(8) %0, ptr noundef nonnull @.str.26, i32 noundef 1, ptr noundef nonnull @.str.35, ptr noundef nonnull @.str.30, ptr noundef nonnull @.str.22)
  tail call void @_ZN12param_descrs6insertEPKc12cmd_arg_kindS1_S1_S1_(ptr noundef nonnull align 8 dereferenceable(8) %0, ptr noundef nonnull @.str.27, i32 noundef 0, ptr noundef nonnull @.str.36, ptr noundef nonnull @.str.37, ptr noundef nonnull @.str.22)
  tail call void @_ZN12param_descrs6insertEPKc12cmd_arg_kindS1_S1_S1_(ptr noundef nonnull align 8 dereferenceable(8) %0, ptr noundef nonnull @.str.28, i32 noundef 1, ptr noundef nonnull @.str.38, ptr noundef nonnull @.str.39, ptr noundef nonnull @.str.22)
  ret void
}